(dp0
VServer
p1
Vcmsweb.cern.ch
p2
sVPort
p3
V
p4
sVRequestName
p5
V251003_194658:asimsek_crab_ScoutingPFRun3__Run2024I-v1__HLTSCOUT
p6
sVvoRole
p7
VNULL
p8
sVvoGroup
p9
g4
sVinstance
p10
Vprod
p11
sVOriginalConfig
p12
ccopy_reg
_reconstructor
p13
(cWMCore.Configuration
Configuration
p14
c__builtin__
object
p15
Ntp16
Rp17
(dp18
V_internal_sections
p19
(lp20
VGeneral
p21
aVJobType
p22
aVData
p23
aVUser
p24
aVSite
p25
asg21
g13
(cWMCore.Configuration
ConfigSection
p26
g15
Ntp27
Rp28
(dp29
V_internal_documentation
p30
g4
sV_internal_name
p31
g21
sV_internal_settings
p32
c__builtin__
set
p33
((lp34
VrequestName
p35
aVworkArea
p36
aVtransferLogs
p37
aVtransferOutputs
p38
atp39
Rp40
sV_internal_docstrings
p41
(dp42
sV_internal_children
p43
g33
((lp44
tp45
Rp46
sV_internal_parent_ref
p47
NsV_internal_skipChecks
p48
I00
sg38
I01
sg37
I01
sg36
V/uscms_data/d3/asimsek/Dijet_Run3/treeMaker/CMSSW_15_0_6/src/DijetScoutingRun3NTupleMaker/submitCrab3Jobs/Output_ScoutingPFRun3/_ScoutingPFRun3_Run2024I-v1_03October2025_20251003_1400/workdir
p49
sg35
VScoutingPFRun3__Run2024I-v1__HLTSCOUT
p50
sbsg22
g13
(g26
g15
Ntp51
Rp52
(dp53
g30
g4
sg31
g22
sg32
g33
((lp54
VpluginName
p55
aVoutputFiles
p56
aVpsetName
p57
atp58
Rp59
sg41
(dp60
sg43
g33
((lp61
tp62
Rp63
sg47
Nsg48
I00
sg57
V/uscms_data/d3/asimsek/Dijet_Run3/treeMaker/CMSSW_15_0_6/src/DijetScoutingRun3NTupleMaker/submitCrab3Jobs/Output_ScoutingPFRun3/_ScoutingPFRun3_Run2024I-v1_03October2025_20251003_1400/cfg/ScoutingPFRun3_cmssw.py
p64
sg55
VAnalysis
p65
sg56
(lp66
VScoutingPFRun3__Run2024I-v1__HLTSCOUT.root
p67
asbsg23
g13
(g26
g15
Ntp68
Rp69
(dp70
g30
g4
sg31
g23
sg32
g33
((lp71
Vpublication
p72
aVoutLFNDirBase
p73
aVinputDataset
p74
aVsplitting
p75
aVinputDBS
p76
aVunitsPerJob
p77
atp78
Rp79
sg41
(dp80
sg43
g33
((lp81
tp82
Rp83
sg47
Nsg48
I00
sg74
V/ScoutingPFRun3/Run2024I-v1/HLTSCOUT
p84
sg76
Vglobal
p85
sg77
I20
sg75
VLumiBased
p86
sg72
I00
sg73
V/store/group/lpcjj/CaloScouting/Run3PFScouting/rootTrees_big/2024/ScoutingPFRun3/
p87
sbsg24
g13
(g26
g15
Ntp88
Rp89
(dp90
g30
g4
sg31
g24
sg32
g33
((lp91
tp92
Rp93
sg41
(dp94
sg43
g33
((lp95
tp96
Rp97
sg47
Nsg48
I00
sbsg25
g13
(g26
g15
Ntp98
Rp99
(dp100
g30
g4
sg31
g25
sg32
g33
((lp101
VstorageSite
p102
atp103
Rp104
sg41
(dp105
sg43
g33
((lp106
tp107
Rp108
sg47
Nsg48
I00
sg102
VT3_US_FNALLPC
p109
sbsbs.